; Function Attrs: mustprogress uwtable
define noundef zeroext i1 @_ZN7testing8internal15UnitTestOptions17FilterMatchesTestERKNSt7__cxx1112basic_stringIcSt11char_traitsIcESaIcEEES9_(ptr noundef nonnull readonly align 8 captures(none) dereferenceable(32) %0, ptr noundef nonnull readonly align 8 captures(none) dereferenceable(32) %1) local_unnamed_addr #3 align 2 personality ptr @__gxx_personality_v0 {
  %3 = alloca %"class.testing::internal::(anonymous namespace)::PositiveAndNegativeUnitTestFilter", align 8
  call void @llvm.lifetime.start.p0(i64 160, ptr nonnull %3) #57
  call fastcc void @_ZN7testing8internal12_GLOBAL__N_133PositiveAndNegativeUnitTestFilterC2ERKNSt7__cxx1112basic_stringIcSt11char_traitsIcESaIcEEE(ptr noundef nonnull align 8 dereferenceable(160) %3)
  %.val = load ptr, ptr %0, align 8, !tbaa !22, !noalias !731
  %4 = getelementptr inbounds nuw i8, ptr %0, i64 8
  %.val3 = load i64, ptr %4, align 8, !tbaa !25, !noalias !731
  %5 = invoke fastcc noundef zeroext i1 @_ZNK7testing8internal12_GLOBAL__N_133PositiveAndNegativeUnitTestFilter11MatchesTestERKNSt7__cxx1112basic_stringIcSt11char_traitsIcESaIcEEESA_(ptr noundef nonnull align 8 dereferenceable(160) %3, ptr %.val, i64 %.val3, ptr noundef nonnull align 8 dereferenceable(32) %1)
          to label %6 unwind label %92

6:                                                ; preds = %2
  %7 = getelementptr inbounds nuw i8, ptr %3, i64 80
  %8 = getelementptr inbounds nuw i8, ptr %3, i64 104
  %9 = getelementptr inbounds nuw i8, ptr %3, i64 120
  %10 = load ptr, ptr %9, align 8, !tbaa !710
  %.not5.i.i.i.i.i4 = icmp eq ptr %10, null
  br i1 %.not5.i.i.i.i.i4, label %_ZNSt10_HashtableINSt7__cxx1112basic_stringIcSt11char_traitsIcESaIcEEES5_SaIS5_ENSt8__detail9_IdentityESt8equal_toIS5_ESt4hashIS5_ENS7_18_Mod_range_hashingENS7_20_Default_ranged_hashENS7_20_Prime_rehash_policyENS7_17_Hashtable_traitsILb1ELb1ELb1EEEE5clearEv.exit.i.i.i10, label %.lr.ph.i.i.i.i.i5

.lr.ph.i.i.i.i.i5:                                ; preds = %6, %_ZNSt8__detail16_Hashtable_allocISaINS_10_Hash_nodeINSt7__cxx1112basic_stringIcSt11char_traitsIcESaIcEEELb1EEEEE18_M_deallocate_nodeEPS8_.exit.i.i.i.i.i8
  %.06.i.i.i.i.i6 = phi ptr [ %11, %_ZNSt8__detail16_Hashtable_allocISaINS_10_Hash_nodeINSt7__cxx1112basic_stringIcSt11char_traitsIcESaIcEEELb1EEEEE18_M_deallocate_nodeEPS8_.exit.i.i.i.i.i8 ], [ %10, %6 ]
  %11 = load ptr, ptr %.06.i.i.i.i.i6, align 8, !tbaa !717
  %12 = getelementptr inbounds nuw i8, ptr %.06.i.i.i.i.i6, i64 8
  %13 = load ptr, ptr %12, align 8, !tbaa !22
  %14 = getelementptr inbounds nuw i8, ptr %.06.i.i.i.i.i6, i64 24
  %15 = icmp eq ptr %13, %14
  br i1 %15, label %_ZNKSt7__cxx1112basic_stringIcSt11char_traitsIcESaIcEE11_M_is_localEv.exit.thread.i.i.i.i.i.i.i.i.i.i23, label %_ZNKSt7__cxx1112basic_stringIcSt11char_traitsIcESaIcEE11_M_is_localEv.exit.i.i.i.i.i.i.i.i.i.i7

_ZNKSt7__cxx1112basic_stringIcSt11char_traitsIcESaIcEE11_M_is_localEv.exit.thread.i.i.i.i.i.i.i.i.i.i23: ; preds = %.lr.ph.i.i.i.i.i5
  %16 = getelementptr inbounds nuw i8, ptr %.06.i.i.i.i.i6, i64 16
  %17 = load i64, ptr %16, align 8, !tbaa !25
  %18 = icmp ult i64 %17, 16
  call void @llvm.assume(i1 %18)
  br label %_ZNSt8__detail16_Hashtable_allocISaINS_10_Hash_nodeINSt7__cxx1112basic_stringIcSt11char_traitsIcESaIcEEELb1EEEEE18_M_deallocate_nodeEPS8_.exit.i.i.i.i.i8

_ZNKSt7__cxx1112basic_stringIcSt11char_traitsIcESaIcEE11_M_is_localEv.exit.i.i.i.i.i.i.i.i.i.i7: ; preds = %.lr.ph.i.i.i.i.i5
  %19 = load i64, ptr %14, align 8, !tbaa !27
  %20 = add i64 %19, 1
  call void @_ZdlPvm(ptr noundef %13, i64 noundef %20) #58
  br label %_ZNSt8__detail16_Hashtable_allocISaINS_10_Hash_nodeINSt7__cxx1112basic_stringIcSt11char_traitsIcESaIcEEELb1EEEEE18_M_deallocate_nodeEPS8_.exit.i.i.i.i.i8

_ZNSt8__detail16_Hashtable_allocISaINS_10_Hash_nodeINSt7__cxx1112basic_stringIcSt11char_traitsIcESaIcEEELb1EEEEE18_M_deallocate_nodeEPS8_.exit.i.i.i.i.i8: ; preds = %_ZNKSt7__cxx1112basic_stringIcSt11char_traitsIcESaIcEE11_M_is_localEv.exit.i.i.i.i.i.i.i.i.i.i7, %_ZNKSt7__cxx1112basic_stringIcSt11char_traitsIcESaIcEE11_M_is_localEv.exit.thread.i.i.i.i.i.i.i.i.i.i23
  call void @_ZdlPvm(ptr noundef nonnull %.06.i.i.i.i.i6, i64 noundef 48) #58
  %.not.i.i.i.i.i9 = icmp eq ptr %11, null
  br i1 %.not.i.i.i.i.i9, label %_ZNSt10_HashtableINSt7__cxx1112basic_stringIcSt11char_traitsIcESaIcEEES5_SaIS5_ENSt8__detail9_IdentityESt8equal_toIS5_ESt4hashIS5_ENS7_18_Mod_range_hashingENS7_20_Default_ranged_hashENS7_20_Prime_rehash_policyENS7_17_Hashtable_traitsILb1ELb1ELb1EEEE5clearEv.exit.i.i.i10, label %.lr.ph.i.i.i.i.i5, !llvm.loop !718

_ZNSt10_HashtableINSt7__cxx1112basic_stringIcSt11char_traitsIcESaIcEEES5_SaIS5_ENSt8__detail9_IdentityESt8equal_toIS5_ESt4hashIS5_ENS7_18_Mod_range_hashingENS7_20_Default_ranged_hashENS7_20_Prime_rehash_policyENS7_17_Hashtable_traitsILb1ELb1ELb1EEEE5clearEv.exit.i.i.i10: ; preds = %_ZNSt8__detail16_Hashtable_allocISaINS_10_Hash_nodeINSt7__cxx1112basic_stringIcSt11char_traitsIcESaIcEEELb1EEEEE18_M_deallocate_nodeEPS8_.exit.i.i.i.i.i8, %6
  %21 = load ptr, ptr %8, align 8, !tbaa !719
  %22 = getelementptr inbounds nuw i8, ptr %3, i64 112
  %23 = load i64, ptr %22, align 8, !tbaa !720
  %24 = shl i64 %23, 3
  call void @llvm.memset.p0.i64(ptr align 8 %21, i8 0, i64 %24, i1 false)
  call void @llvm.memset.p0.i64(ptr noundef nonnull align 8 dereferenceable(16) %9, i8 0, i64 16, i1 false)
  %25 = load ptr, ptr %8, align 8, !tbaa !719
  %26 = getelementptr inbounds nuw i8, ptr %3, i64 152
  %27 = icmp eq ptr %25, %26
  br i1 %27, label %_ZNSt13unordered_setINSt7__cxx1112basic_stringIcSt11char_traitsIcESaIcEEESt4hashIS5_ESt8equal_toIS5_ESaIS5_EED2Ev.exit.i11, label %28

28:                                               ; preds = %_ZNSt10_HashtableINSt7__cxx1112basic_stringIcSt11char_traitsIcESaIcEEES5_SaIS5_ENSt8__detail9_IdentityESt8equal_toIS5_ESt4hashIS5_ENS7_18_Mod_range_hashingENS7_20_Default_ranged_hashENS7_20_Prime_rehash_policyENS7_17_Hashtable_traitsILb1ELb1ELb1EEEE5clearEv.exit.i.i.i10
  %29 = load i64, ptr %22, align 8, !tbaa !720
  %30 = shl i64 %29, 3
  call void @_ZdlPvm(ptr noundef %25, i64 noundef %30) #58
  br label %_ZNSt13unordered_setINSt7__cxx1112basic_stringIcSt11char_traitsIcESaIcEEESt4hashIS5_ESt8equal_toIS5_ESaIS5_EED2Ev.exit.i11

_ZNSt13unordered_setINSt7__cxx1112basic_stringIcSt11char_traitsIcESaIcEEESt4hashIS5_ESt8equal_toIS5_ESaIS5_EED2Ev.exit.i11: ; preds = %28, %_ZNSt10_HashtableINSt7__cxx1112basic_stringIcSt11char_traitsIcESaIcEEES5_SaIS5_ENSt8__detail9_IdentityESt8equal_toIS5_ESt4hashIS5_ENS7_18_Mod_range_hashingENS7_20_Default_ranged_hashENS7_20_Prime_rehash_policyENS7_17_Hashtable_traitsILb1ELb1ELb1EEEE5clearEv.exit.i.i.i10
  %31 = load ptr, ptr %7, align 8, !tbaa !323
  %32 = getelementptr inbounds nuw i8, ptr %3, i64 88
  %33 = load ptr, ptr %32, align 8, !tbaa !320
  %.not4.i.i.i.i.i12 = icmp eq ptr %31, %33
  br i1 %.not4.i.i.i.i.i12, label %_ZSt8_DestroyIPNSt7__cxx1112basic_stringIcSt11char_traitsIcESaIcEEES5_EvT_S7_RSaIT0_E.exit.i.i20, label %.lr.ph.i.i.i.i1.i13

.lr.ph.i.i.i.i1.i13:                              ; preds = %_ZNSt13unordered_setINSt7__cxx1112basic_stringIcSt11char_traitsIcESaIcEEESt4hashIS5_ESt8equal_toIS5_ESaIS5_EED2Ev.exit.i11, %_ZSt8_DestroyINSt7__cxx1112basic_stringIcSt11char_traitsIcESaIcEEEEvPT_.exit.i.i.i.i.i16
  %.05.i.i.i.i.i14 = phi ptr [ %42, %_ZSt8_DestroyINSt7__cxx1112basic_stringIcSt11char_traitsIcESaIcEEEEvPT_.exit.i.i.i.i.i16 ], [ %31, %_ZNSt13unordered_setINSt7__cxx1112basic_stringIcSt11char_traitsIcESaIcEEESt4hashIS5_ESt8equal_toIS5_ESaIS5_EED2Ev.exit.i11 ]
  %34 = load ptr, ptr %.05.i.i.i.i.i14, align 8, !tbaa !22
  %35 = getelementptr inbounds nuw i8, ptr %.05.i.i.i.i.i14, i64 16
  %36 = icmp eq ptr %34, %35
  br i1 %36, label %_ZNKSt7__cxx1112basic_stringIcSt11char_traitsIcESaIcEE11_M_is_localEv.exit.thread.i.i.i.i.i.i.i.i22, label %_ZNKSt7__cxx1112basic_stringIcSt11char_traitsIcESaIcEE11_M_is_localEv.exit.i.i.i.i.i.i.i.i15

_ZNKSt7__cxx1112basic_stringIcSt11char_traitsIcESaIcEE11_M_is_localEv.exit.thread.i.i.i.i.i.i.i.i22: ; preds = %.lr.ph.i.i.i.i1.i13
  %37 = getelementptr inbounds nuw i8, ptr %.05.i.i.i.i.i14, i64 8
  %38 = load i64, ptr %37, align 8, !tbaa !25
  %39 = icmp ult i64 %38, 16
  call void @llvm.assume(i1 %39)
  br label %_ZSt8_DestroyINSt7__cxx1112basic_stringIcSt11char_traitsIcESaIcEEEEvPT_.exit.i.i.i.i.i16

_ZNKSt7__cxx1112basic_stringIcSt11char_traitsIcESaIcEE11_M_is_localEv.exit.i.i.i.i.i.i.i.i15: ; preds = %.lr.ph.i.i.i.i1.i13
  %40 = load i64, ptr %35, align 8, !tbaa !27
  %41 = add i64 %40, 1
  call void @_ZdlPvm(ptr noundef %34, i64 noundef %41) #58
  br label %_ZSt8_DestroyINSt7__cxx1112basic_stringIcSt11char_traitsIcESaIcEEEEvPT_.exit.i.i.i.i.i16

_ZSt8_DestroyINSt7__cxx1112basic_stringIcSt11char_traitsIcESaIcEEEEvPT_.exit.i.i.i.i.i16: ; preds = %_ZNKSt7__cxx1112basic_stringIcSt11char_traitsIcESaIcEE11_M_is_localEv.exit.i.i.i.i.i.i.i.i15, %_ZNKSt7__cxx1112basic_stringIcSt11char_traitsIcESaIcEE11_M_is_localEv.exit.thread.i.i.i.i.i.i.i.i22
  %42 = getelementptr inbounds nuw i8, ptr %.05.i.i.i.i.i14, i64 32
  %.not.i.i.i.i2.i17 = icmp eq ptr %42, %33
  br i1 %.not.i.i.i.i2.i17, label %_ZSt8_DestroyIPNSt7__cxx1112basic_stringIcSt11char_traitsIcESaIcEEES5_EvT_S7_RSaIT0_E.exitthread-pre-split.i.i18, label %.lr.ph.i.i.i.i1.i13, !llvm.loop !340

_ZSt8_DestroyIPNSt7__cxx1112basic_stringIcSt11char_traitsIcESaIcEEES5_EvT_S7_RSaIT0_E.exitthread-pre-split.i.i18: ; preds = %_ZSt8_DestroyINSt7__cxx1112basic_stringIcSt11char_traitsIcESaIcEEEEvPT_.exit.i.i.i.i.i16
  %.pr.i.i19 = load ptr, ptr %7, align 8, !tbaa !323
  br label %_ZSt8_DestroyIPNSt7__cxx1112basic_stringIcSt11char_traitsIcESaIcEEES5_EvT_S7_RSaIT0_E.exit.i.i20

_ZSt8_DestroyIPNSt7__cxx1112basic_stringIcSt11char_traitsIcESaIcEEES5_EvT_S7_RSaIT0_E.exit.i.i20: ; preds = %_ZSt8_DestroyIPNSt7__cxx1112basic_stringIcSt11char_traitsIcESaIcEEES5_EvT_S7_RSaIT0_E.exitthread-pre-split.i.i18, %_ZNSt13unordered_setINSt7__cxx1112basic_stringIcSt11char_traitsIcESaIcEEESt4hashIS5_ESt8equal_toIS5_ESaIS5_EED2Ev.exit.i11
  %43 = phi ptr [ %.pr.i.i19, %_ZSt8_DestroyIPNSt7__cxx1112basic_stringIcSt11char_traitsIcESaIcEEES5_EvT_S7_RSaIT0_E.exitthread-pre-split.i.i18 ], [ %31, %_ZNSt13unordered_setINSt7__cxx1112basic_stringIcSt11char_traitsIcESaIcEEESt4hashIS5_ESt8equal_toIS5_ESaIS5_EED2Ev.exit.i11 ]
  %.not.i.i.i.i21 = icmp eq ptr %43, null
  br i1 %.not.i.i.i.i21, label %_ZN7testing8internal12_GLOBAL__N_114UnitTestFilterD2Ev.exit24, label %44

44:                                               ; preds = %_ZSt8_DestroyIPNSt7__cxx1112basic_stringIcSt11char_traitsIcESaIcEEES5_EvT_S7_RSaIT0_E.exit.i.i20
  %45 = getelementptr inbounds nuw i8, ptr %3, i64 96
  %46 = load ptr, ptr %45, align 8, !tbaa !322
  %47 = ptrtoint ptr %46 to i64
  %48 = ptrtoint ptr %43 to i64
  %49 = sub i64 %47, %48
  call void @_ZdlPvm(ptr noundef nonnull %43, i64 noundef %49) #58
  br label %_ZN7testing8internal12_GLOBAL__N_114UnitTestFilterD2Ev.exit24

_ZN7testing8internal12_GLOBAL__N_114UnitTestFilterD2Ev.exit24: ; preds = %_ZSt8_DestroyIPNSt7__cxx1112basic_stringIcSt11char_traitsIcESaIcEEES5_EvT_S7_RSaIT0_E.exit.i.i20, %44
  %50 = getelementptr inbounds nuw i8, ptr %3, i64 24
  %51 = getelementptr inbounds nuw i8, ptr %3, i64 40
  %52 = load ptr, ptr %51, align 8, !tbaa !710
  %.not5.i.i.i.i.i = icmp eq ptr %52, null
  br i1 %.not5.i.i.i.i.i, label %_ZNSt10_HashtableINSt7__cxx1112basic_stringIcSt11char_traitsIcESaIcEEES5_SaIS5_ENSt8__detail9_IdentityESt8equal_toIS5_ESt4hashIS5_ENS7_18_Mod_range_hashingENS7_20_Default_ranged_hashENS7_20_Prime_rehash_policyENS7_17_Hashtable_traitsILb1ELb1ELb1EEEE5clearEv.exit.i.i.i, label %.lr.ph.i.i.i.i.i

.lr.ph.i.i.i.i.i:                                 ; preds = %_ZN7testing8internal12_GLOBAL__N_114UnitTestFilterD2Ev.exit24, %_ZNSt8__detail16_Hashtable_allocISaINS_10_Hash_nodeINSt7__cxx1112basic_stringIcSt11char_traitsIcESaIcEEELb1EEEEE18_M_deallocate_nodeEPS8_.exit.i.i.i.i.i
  %.06.i.i.i.i.i = phi ptr [ %53, %_ZNSt8__detail16_Hashtable_allocISaINS_10_Hash_nodeINSt7__cxx1112basic_stringIcSt11char_traitsIcESaIcEEELb1EEEEE18_M_deallocate_nodeEPS8_.exit.i.i.i.i.i ], [ %52, %_ZN7testing8internal12_GLOBAL__N_114UnitTestFilterD2Ev.exit24 ]
  %53 = load ptr, ptr %.06.i.i.i.i.i, align 8, !tbaa !717
  %54 = getelementptr inbounds nuw i8, ptr %.06.i.i.i.i.i, i64 8
  %55 = load ptr, ptr %54, align 8, !tbaa !22
  %56 = getelementptr inbounds nuw i8, ptr %.06.i.i.i.i.i, i64 24
  %57 = icmp eq ptr %55, %56
  br i1 %57, label %_ZNKSt7__cxx1112basic_stringIcSt11char_traitsIcESaIcEE11_M_is_localEv.exit.thread.i.i.i.i.i.i.i.i.i.i, label %_ZNKSt7__cxx1112basic_stringIcSt11char_traitsIcESaIcEE11_M_is_localEv.exit.i.i.i.i.i.i.i.i.i.i

_ZNKSt7__cxx1112basic_stringIcSt11char_traitsIcESaIcEE11_M_is_localEv.exit.thread.i.i.i.i.i.i.i.i.i.i: ; preds = %.lr.ph.i.i.i.i.i
  %58 = getelementptr inbounds nuw i8, ptr %.06.i.i.i.i.i, i64 16
  %59 = load i64, ptr %58, align 8, !tbaa !25
  %60 = icmp ult i64 %59, 16
  call void @llvm.assume(i1 %60)
  br label %_ZNSt8__detail16_Hashtable_allocISaINS_10_Hash_nodeINSt7__cxx1112basic_stringIcSt11char_traitsIcESaIcEEELb1EEEEE18_M_deallocate_nodeEPS8_.exit.i.i.i.i.i

_ZNKSt7__cxx1112basic_stringIcSt11char_traitsIcESaIcEE11_M_is_localEv.exit.i.i.i.i.i.i.i.i.i.i: ; preds = %.lr.ph.i.i.i.i.i
  %61 = load i64, ptr %56, align 8, !tbaa !27
  %62 = add i64 %61, 1
  call void @_ZdlPvm(ptr noundef %55, i64 noundef %62) #58
  br label %_ZNSt8__detail16_Hashtable_allocISaINS_10_Hash_nodeINSt7__cxx1112basic_stringIcSt11char_traitsIcESaIcEEELb1EEEEE18_M_deallocate_nodeEPS8_.exit.i.i.i.i.i

_ZNSt8__detail16_Hashtable_allocISaINS_10_Hash_nodeINSt7__cxx1112basic_stringIcSt11char_traitsIcESaIcEEELb1EEEEE18_M_deallocate_nodeEPS8_.exit.i.i.i.i.i: ; preds = %_ZNKSt7__cxx1112basic_stringIcSt11char_traitsIcESaIcEE11_M_is_localEv.exit.i.i.i.i.i.i.i.i.i.i, %_ZNKSt7__cxx1112basic_stringIcSt11char_traitsIcESaIcEE11_M_is_localEv.exit.thread.i.i.i.i.i.i.i.i.i.i
  call void @_ZdlPvm(ptr noundef nonnull %.06.i.i.i.i.i, i64 noundef 48) #58
  %.not.i.i.i.i.i = icmp eq ptr %53, null
  br i1 %.not.i.i.i.i.i, label %_ZNSt10_HashtableINSt7__cxx1112basic_stringIcSt11char_traitsIcESaIcEEES5_SaIS5_ENSt8__detail9_IdentityESt8equal_toIS5_ESt4hashIS5_ENS7_18_Mod_range_hashingENS7_20_Default_ranged_hashENS7_20_Prime_rehash_policyENS7_17_Hashtable_traitsILb1ELb1ELb1EEEE5clearEv.exit.i.i.i, label %.lr.ph.i.i.i.i.i, !llvm.loop !718

_ZNSt10_HashtableINSt7__cxx1112basic_stringIcSt11char_traitsIcESaIcEEES5_SaIS5_ENSt8__detail9_IdentityESt8equal_toIS5_ESt4hashIS5_ENS7_18_Mod_range_hashingENS7_20_Default_ranged_hashENS7_20_Prime_rehash_policyENS7_17_Hashtable_traitsILb1ELb1ELb1EEEE5clearEv.exit.i.i.i: ; preds = %_ZNSt8__detail16_Hashtable_allocISaINS_10_Hash_nodeINSt7__cxx1112basic_stringIcSt11char_traitsIcESaIcEEELb1EEEEE18_M_deallocate_nodeEPS8_.exit.i.i.i.i.i, %_ZN7testing8internal12_GLOBAL__N_114UnitTestFilterD2Ev.exit24
  %63 = load ptr, ptr %50, align 8, !tbaa !719
  %64 = getelementptr inbounds nuw i8, ptr %3, i64 32
  %65 = load i64, ptr %64, align 8, !tbaa !720
  %66 = shl i64 %65, 3
  call void @llvm.memset.p0.i64(ptr align 8 %63, i8 0, i64 %66, i1 false)
  call void @llvm.memset.p0.i64(ptr noundef nonnull align 8 dereferenceable(16) %51, i8 0, i64 16, i1 false)
  %67 = load ptr, ptr %50, align 8, !tbaa !719
  %68 = getelementptr inbounds nuw i8, ptr %3, i64 72
  %69 = icmp eq ptr %67, %68
  br i1 %69, label %_ZNSt13unordered_setINSt7__cxx1112basic_stringIcSt11char_traitsIcESaIcEEESt4hashIS5_ESt8equal_toIS5_ESaIS5_EED2Ev.exit.i, label %70

70:                                               ; preds = %_ZNSt10_HashtableINSt7__cxx1112basic_stringIcSt11char_traitsIcESaIcEEES5_SaIS5_ENSt8__detail9_IdentityESt8equal_toIS5_ESt4hashIS5_ENS7_18_Mod_range_hashingENS7_20_Default_ranged_hashENS7_20_Prime_rehash_policyENS7_17_Hashtable_traitsILb1ELb1ELb1EEEE5clearEv.exit.i.i.i
  %71 = load i64, ptr %64, align 8, !tbaa !720
  %72 = shl i64 %71, 3
  call void @_ZdlPvm(ptr noundef %67, i64 noundef %72) #58
  br label %_ZNSt13unordered_setINSt7__cxx1112basic_stringIcSt11char_traitsIcESaIcEEESt4hashIS5_ESt8equal_toIS5_ESaIS5_EED2Ev.exit.i

_ZNSt13unordered_setINSt7__cxx1112basic_stringIcSt11char_traitsIcESaIcEEESt4hashIS5_ESt8equal_toIS5_ESaIS5_EED2Ev.exit.i: ; preds = %70, %_ZNSt10_HashtableINSt7__cxx1112basic_stringIcSt11char_traitsIcESaIcEEES5_SaIS5_ENSt8__detail9_IdentityESt8equal_toIS5_ESt4hashIS5_ENS7_18_Mod_range_hashingENS7_20_Default_ranged_hashENS7_20_Prime_rehash_policyENS7_17_Hashtable_traitsILb1ELb1ELb1EEEE5clearEv.exit.i.i.i
  %73 = load ptr, ptr %3, align 8, !tbaa !323
  %74 = getelementptr inbounds nuw i8, ptr %3, i64 8
  %75 = load ptr, ptr %74, align 8, !tbaa !320
  %.not4.i.i.i.i.i = icmp eq ptr %73, %75
  br i1 %.not4.i.i.i.i.i, label %_ZSt8_DestroyIPNSt7__cxx1112basic_stringIcSt11char_traitsIcESaIcEEES5_EvT_S7_RSaIT0_E.exit.i.i, label %.lr.ph.i.i.i.i1.i

.lr.ph.i.i.i.i1.i:                                ; preds = %_ZNSt13unordered_setINSt7__cxx1112basic_stringIcSt11char_traitsIcESaIcEEESt4hashIS5_ESt8equal_toIS5_ESaIS5_EED2Ev.exit.i, %_ZSt8_DestroyINSt7__cxx1112basic_stringIcSt11char_traitsIcESaIcEEEEvPT_.exit.i.i.i.i.i
  %.05.i.i.i.i.i = phi ptr [ %84, %_ZSt8_DestroyINSt7__cxx1112basic_stringIcSt11char_traitsIcESaIcEEEEvPT_.exit.i.i.i.i.i ], [ %73, %_ZNSt13unordered_setINSt7__cxx1112basic_stringIcSt11char_traitsIcESaIcEEESt4hashIS5_ESt8equal_toIS5_ESaIS5_EED2Ev.exit.i ]
  %76 = load ptr, ptr %.05.i.i.i.i.i, align 8, !tbaa !22
  %77 = getelementptr inbounds nuw i8, ptr %.05.i.i.i.i.i, i64 16
  %78 = icmp eq ptr %76, %77
  br i1 %78, label %_ZNKSt7__cxx1112basic_stringIcSt11char_traitsIcESaIcEE11_M_is_localEv.exit.thread.i.i.i.i.i.i.i.i, label %_ZNKSt7__cxx1112basic_stringIcSt11char_traitsIcESaIcEE11_M_is_localEv.exit.i.i.i.i.i.i.i.i

_ZNKSt7__cxx1112basic_stringIcSt11char_traitsIcESaIcEE11_M_is_localEv.exit.thread.i.i.i.i.i.i.i.i: ; preds = %.lr.ph.i.i.i.i1.i
  %79 = getelementptr inbounds nuw i8, ptr %.05.i.i.i.i.i, i64 8
  %80 = load i64, ptr %79, align 8, !tbaa !25
  %81 = icmp ult i64 %80, 16
  call void @llvm.assume(i1 %81)
  br label %_ZSt8_DestroyINSt7__cxx1112basic_stringIcSt11char_traitsIcESaIcEEEEvPT_.exit.i.i.i.i.i

_ZNKSt7__cxx1112basic_stringIcSt11char_traitsIcESaIcEE11_M_is_localEv.exit.i.i.i.i.i.i.i.i: ; preds = %.lr.ph.i.i.i.i1.i
  %82 = load i64, ptr %77, align 8, !tbaa !27
  %83 = add i64 %82, 1
  call void @_ZdlPvm(ptr noundef %76, i64 noundef %83) #58
  br label %_ZSt8_DestroyINSt7__cxx1112basic_stringIcSt11char_traitsIcESaIcEEEEvPT_.exit.i.i.i.i.i

_ZSt8_DestroyINSt7__cxx1112basic_stringIcSt11char_traitsIcESaIcEEEEvPT_.exit.i.i.i.i.i: ; preds = %_ZNKSt7__cxx1112basic_stringIcSt11char_traitsIcESaIcEE11_M_is_localEv.exit.i.i.i.i.i.i.i.i, %_ZNKSt7__cxx1112basic_stringIcSt11char_traitsIcESaIcEE11_M_is_localEv.exit.thread.i.i.i.i.i.i.i.i
  %84 = getelementptr inbounds nuw i8, ptr %.05.i.i.i.i.i, i64 32
  %.not.i.i.i.i2.i = icmp eq ptr %84, %75
  br i1 %.not.i.i.i.i2.i, label %_ZSt8_DestroyIPNSt7__cxx1112basic_stringIcSt11char_traitsIcESaIcEEES5_EvT_S7_RSaIT0_E.exitthread-pre-split.i.i, label %.lr.ph.i.i.i.i1.i, !llvm.loop !340

_ZSt8_DestroyIPNSt7__cxx1112basic_stringIcSt11char_traitsIcESaIcEEES5_EvT_S7_RSaIT0_E.exitthread-pre-split.i.i: ; preds = %_ZSt8_DestroyINSt7__cxx1112basic_stringIcSt11char_traitsIcESaIcEEEEvPT_.exit.i.i.i.i.i
  %.pr.i.i = load ptr, ptr %3, align 8, !tbaa !323
  br label %_ZSt8_DestroyIPNSt7__cxx1112basic_stringIcSt11char_traitsIcESaIcEEES5_EvT_S7_RSaIT0_E.exit.i.i

_ZSt8_DestroyIPNSt7__cxx1112basic_stringIcSt11char_traitsIcESaIcEEES5_EvT_S7_RSaIT0_E.exit.i.i: ; preds = %_ZSt8_DestroyIPNSt7__cxx1112basic_stringIcSt11char_traitsIcESaIcEEES5_EvT_S7_RSaIT0_E.exitthread-pre-split.i.i, %_ZNSt13unordered_setINSt7__cxx1112basic_stringIcSt11char_traitsIcESaIcEEESt4hashIS5_ESt8equal_toIS5_ESaIS5_EED2Ev.exit.i
  %85 = phi ptr [ %.pr.i.i, %_ZSt8_DestroyIPNSt7__cxx1112basic_stringIcSt11char_traitsIcESaIcEEES5_EvT_S7_RSaIT0_E.exitthread-pre-split.i.i ], [ %73, %_ZNSt13unordered_setINSt7__cxx1112basic_stringIcSt11char_traitsIcESaIcEEESt4hashIS5_ESt8equal_toIS5_ESaIS5_EED2Ev.exit.i ]
  %.not.i.i.i.i = icmp eq ptr %85, null
  br i1 %.not.i.i.i.i, label %_ZN7testing8internal12_GLOBAL__N_114UnitTestFilterD2Ev.exit, label %86

86:                                               ; preds = %_ZSt8_DestroyIPNSt7__cxx1112basic_stringIcSt11char_traitsIcESaIcEEES5_EvT_S7_RSaIT0_E.exit.i.i
  %87 = getelementptr inbounds nuw i8, ptr %3, i64 16
  %88 = load ptr, ptr %87, align 8, !tbaa !322
  %89 = ptrtoint ptr %88 to i64
  %90 = ptrtoint ptr %85 to i64
  %91 = sub i64 %89, %90
  call void @_ZdlPvm(ptr noundef nonnull %85, i64 noundef %91) #58
  br label %_ZN7testing8internal12_GLOBAL__N_114UnitTestFilterD2Ev.exit

_ZN7testing8internal12_GLOBAL__N_114UnitTestFilterD2Ev.exit: ; preds = %_ZSt8_DestroyIPNSt7__cxx1112basic_stringIcSt11char_traitsIcESaIcEEES5_EvT_S7_RSaIT0_E.exit.i.i, %86
  call void @llvm.lifetime.end.p0(i64 160, ptr nonnull %3) #57
  ret i1 %5

92:                                               ; preds = %2
  %93 = landingpad { ptr, i32 }
          cleanup
  %94 = getelementptr inbounds nuw i8, ptr %3, i64 80
  call fastcc void @_ZN7testing8internal12_GLOBAL__N_114UnitTestFilterD2Ev(ptr noundef nonnull align 8 dereferenceable(80) %94) #57
  call fastcc void @_ZN7testing8internal12_GLOBAL__N_114UnitTestFilterD2Ev(ptr noundef nonnull align 8 dereferenceable(160) %3) #57
  call void @llvm.lifetime.end.p0(i64 160, ptr nonnull %3) #57
  resume { ptr, i32 } %93
}